; Function Attrs: mustprogress nofree norecurse nosync nounwind willreturn memory(read, inaccessiblemem: none) uwtable
define hidden noundef zeroext i1 @_ZNK3smt10theory_seq12solution_map7is_rootEP4expr(ptr nocapture noundef nonnull readonly align 8 dereferenceable(104) %this, ptr nocapture noundef readonly %e) local_unnamed_addr #4 align 2 {
entry:
  %0 = load i32, ptr %e, align 4
  %m_map = getelementptr inbounds i8, ptr %this, i64 16
  %1 = load ptr, ptr %m_map, align 8
  %cmp.i = icmp eq ptr %1, null
  br i1 %cmp.i, label %lor.end, label %_ZNK6vectorIN3smt10theory_seq8expr_depELb0EjE4sizeEv.exit

_ZNK6vectorIN3smt10theory_seq8expr_depELb0EjE4sizeEv.exit: ; preds = %entry
  %arrayidx.i = getelementptr inbounds i8, ptr %1, i64 -4
  %2 = load i32, ptr %arrayidx.i, align 4
  %cmp.not = icmp ult i32 %0, %2
  br i1 %cmp.not, label %lor.rhs, label %lor.end

lor.rhs:                                          ; preds = %_ZNK6vectorIN3smt10theory_seq8expr_depELb0EjE4sizeEv.exit
  %idxprom.i = zext i32 %0 to i64
  %e6 = getelementptr inbounds %"struct.smt::theory_seq::expr_dep", ptr %1, i64 %idxprom.i, i32 1
  %3 = load ptr, ptr %e6, align 8
  %cmp7 = icmp eq ptr %3, null
  br label %lor.end

lor.end:                                          ; preds = %entry, %lor.rhs, %_ZNK6vectorIN3smt10theory_seq8expr_depELb0EjE4sizeEv.exit
  %4 = phi i1 [ true, %_ZNK6vectorIN3smt10theory_seq8expr_depELb0EjE4sizeEv.exit ], [ %cmp7, %lor.rhs ], [ true, %entry ]
  ret i1 %4
}